target datalayout = "e-m:e-p270:32:32-p271:32:32-p272:64:64-i64:64-i128:128-f80:128-n8:16:32:64-S128"
target triple = "x86_64-pc-linux-gnu"

; Function Attrs: mustprogress uwtable
define noundef zeroext i1 @_ZN11colvarproxy12io_availableEv(ptr noundef nonnull align 8 dereferenceable(1184) %0) unnamed_addr #1 align 2 {
  %2 = alloca ptr, align 8
  store ptr %0, ptr %2, align 8, !tbaa !31
  %3 = load ptr, ptr %2, align 8
  %4 = getelementptr inbounds i8, ptr %3, i64 768
  %5 = load ptr, ptr %4, align 8, !tbaa !44
  %6 = getelementptr inbounds ptr, ptr %5, i64 2
  %7 = load ptr, ptr %6, align 8
  %8 = call noundef i32 %7(ptr noundef nonnull align 8 dereferenceable(24) %4)
  %9 = icmp eq i32 %8, 0
  br i1 %9, label %10, label %17

10:                                               ; preds = %1
  %11 = getelementptr inbounds i8, ptr %3, i64 768
  %12 = load ptr, ptr %11, align 8, !tbaa !44
  %13 = getelementptr inbounds ptr, ptr %12, i64 6
  %14 = load ptr, ptr %13, align 8
  %15 = call noundef i32 %14(ptr noundef nonnull align 8 dereferenceable(24) %11)
  %16 = icmp eq i32 %15, 0
  br i1 %16, label %24, label %17

17:                                               ; preds = %10, %1
  %18 = getelementptr inbounds i8, ptr %3, i64 768
  %19 = load ptr, ptr %18, align 8, !tbaa !44
  %20 = getelementptr inbounds ptr, ptr %19, i64 2
  %21 = load ptr, ptr %20, align 8
  %22 = call noundef i32 %21(ptr noundef nonnull align 8 dereferenceable(24) %18)
  %23 = icmp ne i32 %22, 0
  br label %24

24:                                               ; preds = %17, %10
  %25 = phi i1 [ true, %10 ], [ %23, %17 ]
  ret i1 %25
}